(dp0
S'HAEDICKE MARK E'
p1
(dp2
S'from_poi_to_this_person'
p3
F180.0
sS'exercised_stock_options'
p4
F608750.0
sS'Percent_bonus'
p5
F307.3838957567658
sS'long_term_incentive'
p6
F983346.0
sS'poi'
p7
I00
ssS'HANNON KEVIN P'
p8
(dp9
g3
F32.0
sg4
F5538001.0
sg5
F616.5405498719651
sg6
F1617011.0
sg7
I01
ssS'RICE KENNETH D'
p10
(dp11
g3
F42.0
sg4
F19794175.0
sg5
F416.0366682832663
sg6
F1617011.0
sg7
I01
ssS'FITZGERALD JAY L'
p12
(dp13
g3
F1.0
sg4
F664461.0
sg5
F175.74074724965732
sg6
F556416.0
sg7
I00
ssS'BUCHANAN HAROLD G'
p14
(dp15
g3
F0.0
sg4
F825464.0
sg5
F201.5990839337626
sg6
F304805.0
sg7
I00
ssS'MCMAHON JEFFREY'
p16
(dp17
g3
F58.0
sg4
F1104054.0
sg5
F701.8528916339135
sg6
F694862.0
sg7
I00
ssS'LAVORATO JOHN J'
p18
(dp19
g3
F528.0
sg4
F4158995.0
sg5
F2357.878852184575
sg6
F2035380.0
sg7
I00
ssS'DURAN WILLIAM D'
p20
(dp21
g3
F106.0
sg4
F1451869.0
sg5
F355.9698517266911
sg6
F1105218.0
sg7
I00
ssS'MURRAY JULIA H'
p22
(dp23
g3
F11.0
sg4
F400478.0
sg5
F174.4561330053558
sg6
F125000.0
sg7
I00
ssS'GARLAND C KEVIN'
p24
(dp25
g3
F10.0
sg4
F636246.0
sg5
F366.4646081415502
sg6
F375304.0
sg7
I00
ssS'BLACHMAN JEREMY M'
p26
(dp27
g3
F25.0
sg4
F765313.0
sg5
F341.9890080709406
sg6
F831809.0
sg7
I00
ssS'SHERRIFF JOHN R'
p28
(dp29
g3
F28.0
sg4
F1835558.0
sg5
F349.8297495218993
sg6
F554422.0
sg7
I00
ssS'MULLER MARK S'
p30
(dp31
g3
F12.0
sg4
F1056320.0
sg5
F437.10809285765373
sg6
F1725545.0
sg7
I00
ssS'WASAFF GEORGE'
p32
(dp33
g3
F22.0
sg4
F1668260.0
sg5
F125.00192310650932
sg6
F200000.0
sg7
I00
ssS'DIETRICH JANET R'
p34
(dp35
g3
F305.0
sg4
F1550019.0
sg5
F239.90403838464616
sg6
F556416.0
sg7
I00
ssS'DERRICK JR. JAMES V'
p36
(dp37
g3
F64.0
sg4
F8831913.0
sg5
F162.47778624016246
sg6
F484000.0
sg7
I00
ssS'FREVERT MARK A'
p38
(dp39
g3
F242.0
sg4
F10433518.0
sg5
F188.5134956811558
sg6
F1617011.0
sg7
I00
ssS'DEFFNER JOSEPH M'
p40
(dp41
g3
F115.0
sg4
F17378.0
sg5
F291.09115519524937
sg6
F335349.0
sg7
I00
ssS'KAMINSKI WINCENTY J'
p42
(dp43
g3
F41.0
sg4
F850010.0
sg5
F145.40114357999425
sg6
F323466.0
sg7
I00
ssS'WALLS JR ROBERT H'
p44
(dp45
g3
F17.0
sg4
F4346544.0
sg5
F238.03456261849217
sg6
F540751.0
sg7
I00
ssS'SHANKMAN JEFFREY A'
p46
(dp47
g3
F94.0
sg4
F1441898.0
sg5
F657.6567689322942
sg6
F554422.0
sg7
I00
ssS'WHALLEY LAWRENCE G'
p48
(dp49
g3
F186.0
sg4
F3282960.0
sg5
F587.8157550297435
sg6
F808346.0
sg7
I00
ssS'SKILLING JEFFREY K'
p50
(dp51
g3
F88.0
sg4
F19250000.0
sg5
F503.933380007163
sg6
F1920000.0
sg7
I01
ssS'MCCONNELL MICHAEL S'
p52
(dp53
g3
F92.0
sg4
F1623010.0
sg5
F301.33849078726047
sg6
F554422.0
sg7
I00
ssS'DELAINEY DAVID W'
p54
(dp55
g3
F66.0
sg4
F2291113.0
sg5
F821.5509238340138
sg6
F1294981.0
sg7
I01
ssS'BIBI PHILIPPE A'
p56
(dp57
g3
F23.0
sg4
F1465734.0
sg5
F468.1100058513751
sg6
F369721.0
sg7
I00
ssS'FALLON JAMES B'
p58
(dp59
g3
F42.0
sg4
F940257.0
sg5
F820.7808580771402
sg6
F374347.0
sg7
I00
ssS'KOENIG MARK E'
p60
(dp61
g3
F53.0
sg4
F671737.0
sg5
F225.8457924928859
sg6
F300000.0
sg7
I01
ssS'TILNEY ELIZABETH A'
p62
(dp63
g3
F10.0
sg4
F591250.0
sg5
F121.29151201998884
sg6
F275000.0
sg7
I00
ssS'KEAN STEVEN J'
p64
(dp65
g3
F140.0
sg4
F2022048.0
sg5
F247.31783804638692
sg6
F300000.0
sg7
I00
ssS'LAY KENNETH L'
p66
(dp67
g3
F123.0
sg4
F34348384.0
sg5
F652.7896031132468
sg6
F3600000.0
sg7
I01
ssS'OLSON CINDY K'
p68
(dp69
g3
F20.0
sg4
F1637034.0
sg5
F227.90949258230572
sg6
F100000.0
sg7
I00
ssS'BUY RICHARD B'
p70
(dp71
g3
F156.0
sg4
F2542813.0
sg5
F272.2767784211577
sg6
F769862.0
sg7
I00
ssS'ALLEN PHILLIP K'
p72
(dp73
g3
F47.0
sg4
F1729541.0
sg5
F2067.2922185635416
sg6
F304805.0
sg7
I00
ssS'SHARP VICTORIA T'
p74
(dp75
g3
F24.0
sg4
F281073.0
sg5
F241.79313791074608
sg6
F422158.0
sg7
I00
ssS'GLISAN JR BEN F'
p76
(dp77
g3
F52.0
sg4
F384728.0
sg5
F218.20165469588147
sg6
F71023.0
sg7
I01
ss.